target datalayout = "e-m:e-p270:32:32-p271:32:32-p272:64:64-i64:64-i128:128-f80:128-n8:16:32:64-S128"
target triple = "x86_64-pc-linux-gnu"

%struct.SDL_HashTable = type { ptr, ptr, ptr, ptr, ptr, ptr, i32, i32, i32 }
%struct.SDL_HashItem = type { ptr, ptr, i32, i32 }

@.str = private unnamed_addr constant [26 x i8] c"Parameter '%s' is invalid\00", align 1
@.str.1 = private unnamed_addr constant [6 x i8] c"table\00", align 1
@.str.3 = private unnamed_addr constant [9 x i8] c"callback\00", align 1

; Function Attrs: nounwind uwtable
define hidden zeroext i1 @SDL_IterateHashTable(ptr noundef %0, ptr noundef %1, ptr noundef %2) #0 {
  %4 = alloca i1, align 1
  %5 = alloca ptr, align 8
  %6 = alloca ptr, align 8
  %7 = alloca ptr, align 8
  %8 = alloca ptr, align 8
  %9 = alloca i32, align 4
  %10 = alloca ptr, align 8
  %11 = alloca i32, align 4
  store ptr %0, ptr %5, align 8
  store ptr %1, ptr %6, align 8
  store ptr %2, ptr %7, align 8
  %12 = load ptr, ptr %5, align 8
  %13 = icmp ne ptr %12, null
  br i1 %13, label %16, label %14

14:                                               ; preds = %3
  %15 = call zeroext i1 (ptr, ...) @SDL_SetError_REAL(ptr noundef @.str, ptr noundef @.str.1)
  store i1 %15, ptr %4, align 1
  br label %80

16:                                               ; preds = %3
  %17 = load ptr, ptr %6, align 8
  %18 = icmp ne ptr %17, null
  br i1 %18, label %21, label %19

19:                                               ; preds = %16
  %20 = call zeroext i1 (ptr, ...) @SDL_SetError_REAL(ptr noundef @.str, ptr noundef @.str.3)
  store i1 %20, ptr %4, align 1
  br label %80

21:                                               ; preds = %16
  br label %22

22:                                               ; preds = %21
  %23 = load ptr, ptr %5, align 8
  %24 = getelementptr inbounds nuw %struct.SDL_HashTable, ptr %23, i32 0, i32 0
  %25 = load ptr, ptr %24, align 8
  call void @SDL_LockRWLockForReading_REAL(ptr noundef %25)
  call void @llvm.lifetime.start.p0(i64 8, ptr %8) #9
  %26 = load ptr, ptr %5, align 8
  %27 = getelementptr inbounds nuw %struct.SDL_HashTable, ptr %26, i32 0, i32 1
  %28 = load ptr, ptr %27, align 8
  %29 = load ptr, ptr %5, align 8
  %30 = getelementptr inbounds nuw %struct.SDL_HashTable, ptr %29, i32 0, i32 6
  %31 = load i32, ptr %30, align 8
  %32 = add i32 %31, 1
  %33 = zext i32 %32 to i64
  %34 = getelementptr inbounds nuw %struct.SDL_HashItem, ptr %28, i64 %33
  store ptr %34, ptr %8, align 8
  call void @llvm.lifetime.start.p0(i64 4, ptr %9) #9
  store i32 0, ptr %9, align 4
  call void @llvm.lifetime.start.p0(i64 8, ptr %10) #9
  %35 = load ptr, ptr %5, align 8
  %36 = getelementptr inbounds nuw %struct.SDL_HashTable, ptr %35, i32 0, i32 1
  %37 = load ptr, ptr %36, align 8
  store ptr %37, ptr %10, align 8
  br label %38

38:                                               ; preds = %72, %22
  %39 = load ptr, ptr %10, align 8
  %40 = load ptr, ptr %8, align 8
  %41 = icmp ult ptr %39, %40
  br i1 %41, label %43, label %42

42:                                               ; preds = %38
  store i32 2, ptr %11, align 4
  br label %75

43:                                               ; preds = %38
  %44 = load ptr, ptr %10, align 8
  %45 = getelementptr inbounds nuw %struct.SDL_HashItem, ptr %44, i32 0, i32 3
  %46 = load i32, ptr %45, align 4
  %47 = lshr i32 %46, 31
  %48 = icmp ne i32 %47, 0
  br i1 %48, label %49, label %71

49:                                               ; preds = %43
  %50 = load ptr, ptr %6, align 8
  %51 = load ptr, ptr %7, align 8
  %52 = load ptr, ptr %5, align 8
  %53 = load ptr, ptr %10, align 8
  %54 = getelementptr inbounds nuw %struct.SDL_HashItem, ptr %53, i32 0, i32 0
  %55 = load ptr, ptr %54, align 8
  %56 = load ptr, ptr %10, align 8
  %57 = getelementptr inbounds nuw %struct.SDL_HashItem, ptr %56, i32 0, i32 1
  %58 = load ptr, ptr %57, align 8
  %59 = call zeroext i1 %50(ptr noundef %51, ptr noundef %52, ptr noundef %55, ptr noundef %58)
  br i1 %59, label %61, label %60

60:                                               ; preds = %49
  store i32 2, ptr %11, align 4
  br label %75

61:                                               ; preds = %49
  %62 = load i32, ptr %9, align 4
  %63 = add i32 %62, 1
  store i32 %63, ptr %9, align 4
  %64 = load ptr, ptr %5, align 8
  %65 = getelementptr inbounds nuw %struct.SDL_HashTable, ptr %64, i32 0, i32 8
  %66 = load i32, ptr %65, align 8
  %67 = icmp uge i32 %63, %66
  br i1 %67, label %68, label %69

68:                                               ; preds = %61
  store i32 2, ptr %11, align 4
  br label %75

69:                                               ; preds = %61
  br label %70

70:                                               ; preds = %69
  br label %71

71:                                               ; preds = %70, %43
  br label %72

72:                                               ; preds = %71
  %73 = load ptr, ptr %10, align 8
  %74 = getelementptr inbounds nuw %struct.SDL_HashItem, ptr %73, i32 1
  store ptr %74, ptr %10, align 8
  br label %38, !llvm.loop !5

75:                                               ; preds = %68, %60, %42
  call void @llvm.lifetime.end.p0(i64 8, ptr %10) #9
  br label %76

76:                                               ; preds = %75
  %77 = load ptr, ptr %5, align 8
  %78 = getelementptr inbounds nuw %struct.SDL_HashTable, ptr %77, i32 0, i32 0
  %79 = load ptr, ptr %78, align 8
  call void @SDL_UnlockRWLock_REAL(ptr noundef %79)
  store i1 true, ptr %4, align 1
  store i32 1, ptr %11, align 4
  call void @llvm.lifetime.end.p0(i64 4, ptr %9) #9
  call void @llvm.lifetime.end.p0(i64 8, ptr %8) #9
  br label %80

80:                                               ; preds = %76, %19, %14
  %81 = load i1, ptr %4, align 1
  ret i1 %81
}