; Function Attrs: nounwind uwtable
define hidden zeroext i1 @SDL_IterateHashTable(ptr noundef %0, ptr noundef readonly captures(address_is_null) %1, ptr noundef %2) local_unnamed_addr #0 {
  %.not = icmp eq ptr %0, null
  br i1 %.not, label %4, label %6

4:                                                ; preds = %3
  %5 = tail call zeroext i1 (ptr, ...) @SDL_SetError_REAL(ptr noundef nonnull @.str, ptr noundef nonnull @.str.1) #10
  br label %34

6:                                                ; preds = %3
  %.not23 = icmp eq ptr %1, null
  br i1 %.not23, label %7, label %9

7:                                                ; preds = %6
  %8 = tail call zeroext i1 (ptr, ...) @SDL_SetError_REAL(ptr noundef nonnull @.str, ptr noundef nonnull @.str.3) #10
  br label %34

9:                                                ; preds = %6
  %10 = load ptr, ptr %0, align 8
  tail call void @SDL_LockRWLockForReading_REAL(ptr noundef %10) #10
  %11 = getelementptr inbounds nuw i8, ptr %0, i64 8
  %12 = load ptr, ptr %11, align 8
  %13 = getelementptr inbounds nuw i8, ptr %0, i64 48
  %14 = load i32, ptr %13, align 8
  %15 = add i32 %14, 1
  %16 = zext i32 %15 to i64
  %17 = getelementptr inbounds nuw %struct.SDL_HashItem, ptr %12, i64 %16
  %.not30 = icmp eq i32 %15, 0
  br i1 %.not30, label %._crit_edge, label %.lr.ph

.lr.ph:                                           ; preds = %9
  %18 = getelementptr inbounds nuw i8, ptr %0, i64 56
  br label %19

19:                                               ; preds = %.lr.ph, %30
  %.027 = phi ptr [ %12, %.lr.ph ], [ %31, %30 ]
  %.01826 = phi i32 [ 0, %.lr.ph ], [ %.1, %30 ]
  %20 = getelementptr inbounds nuw i8, ptr %.027, i64 20
  %21 = load i32, ptr %20, align 4
  %.not24 = icmp sgt i32 %21, -1
  br i1 %.not24, label %30, label %22

22:                                               ; preds = %19
  %23 = load ptr, ptr %.027, align 8
  %24 = getelementptr inbounds nuw i8, ptr %.027, i64 8
  %25 = load ptr, ptr %24, align 8
  %26 = tail call zeroext i1 %1(ptr noundef %2, ptr noundef nonnull %0, ptr noundef %23, ptr noundef %25) #10
  br i1 %26, label %27, label %._crit_edge

27:                                               ; preds = %22
  %28 = add i32 %.01826, 1
  %29 = load i32, ptr %18, align 8
  %.not25 = icmp ult i32 %28, %29
  br i1 %.not25, label %30, label %._crit_edge

30:                                               ; preds = %19, %27
  %.1 = phi i32 [ %28, %27 ], [ %.01826, %19 ]
  %31 = getelementptr inbounds nuw i8, ptr %.027, i64 24
  %32 = icmp ult ptr %31, %17
  br i1 %32, label %19, label %._crit_edge, !llvm.loop !6

._crit_edge:                                      ; preds = %30, %22, %27, %9
  %33 = load ptr, ptr %0, align 8
  tail call void @SDL_UnlockRWLock_REAL(ptr noundef %33) #10
  br label %34

34:                                               ; preds = %._crit_edge, %7, %4
  %.019 = phi i1 [ true, %._crit_edge ], [ %8, %7 ], [ %5, %4 ]
  ret i1 %.019
}